target datalayout = "e-m:e-p270:32:32-p271:32:32-p272:64:64-i64:64-i128:128-f80:128-n8:16:32:64-S128"
target triple = "x86_64-pc-linux-gnu"

%struct.ExprContext = type { i32, ptr, ptr, ptr, ptr, ptr, ptr, ptr, ptr, ptr, i64, i8, i64, i8, ptr, ptr, ptr, ptr }
%struct.PartitionPruneState = type { ptr, ptr, ptr, ptr, i8, i8, i32, [0 x ptr] }
%struct.PartitionPruningData = type { i32, [0 x %struct.PartitionedRelPruningData] }
%struct.PartitionedRelPruningData = type { ptr, i32, ptr, ptr, ptr, ptr, ptr, ptr, %struct.PartitionPruneContext, %struct.PartitionPruneContext }
%struct.PartitionPruneContext = type { i8, i32, i32, ptr, ptr, ptr, ptr, ptr, ptr, ptr, ptr }

@CurrentMemoryContext = external global ptr, align 8

; Function Attrs: inlinehint nounwind uwtable
define internal ptr @MemoryContextSwitchTo(ptr noundef %0) #3 {
  %2 = alloca ptr, align 8
  %3 = alloca ptr, align 8
  store ptr %0, ptr %2, align 8
  call void @llvm.lifetime.start.p0(i64 8, ptr %3) #9
  %4 = load ptr, ptr @CurrentMemoryContext, align 8
  store ptr %4, ptr %3, align 8
  %5 = load ptr, ptr %2, align 8
  store ptr %5, ptr @CurrentMemoryContext, align 8
  %6 = load ptr, ptr %3, align 8
  call void @llvm.lifetime.end.p0(i64 8, ptr %3) #9
  ret ptr %6
}

; Function Attrs: nounwind uwtable
define dso_local ptr @ExecFindMatchingSubPlans(ptr noundef %0, i1 noundef zeroext %1, ptr noundef %2) #0 {
  %4 = alloca ptr, align 8
  %5 = alloca i8, align 1
  %6 = alloca ptr, align 8
  %7 = alloca ptr, align 8
  %8 = alloca ptr, align 8
  %9 = alloca i32, align 4
  %10 = alloca ptr, align 8
  %11 = alloca ptr, align 8
  store ptr %0, ptr %4, align 8
  %12 = zext i1 %1 to i8
  store i8 %12, ptr %5, align 1
  store ptr %2, ptr %6, align 8
  call void @llvm.lifetime.start.p0(i64 8, ptr %7) #9
  store ptr null, ptr %7, align 8
  call void @llvm.lifetime.start.p0(i64 8, ptr %8) #9
  call void @llvm.lifetime.start.p0(i64 4, ptr %9) #9
  %13 = load ptr, ptr %4, align 8
  %14 = getelementptr inbounds nuw %struct.PartitionPruneState, ptr %13, i32 0, i32 3
  %15 = load ptr, ptr %14, align 8
  %16 = call ptr @MemoryContextSwitchTo(ptr noundef %15)
  store ptr %16, ptr %8, align 8
  store i32 0, ptr %9, align 4
  br label %17

17:                                               ; preds = %53, %3
  %18 = load i32, ptr %9, align 4
  %19 = load ptr, ptr %4, align 8
  %20 = getelementptr inbounds nuw %struct.PartitionPruneState, ptr %19, i32 0, i32 6
  %21 = load i32, ptr %20, align 4
  %22 = icmp slt i32 %18, %21
  br i1 %22, label %23, label %56

23:                                               ; preds = %17
  call void @llvm.lifetime.start.p0(i64 8, ptr %10) #9
  %24 = load ptr, ptr %4, align 8
  %25 = getelementptr inbounds nuw %struct.PartitionPruneState, ptr %24, i32 0, i32 7
  %26 = load i32, ptr %9, align 4
  %27 = sext i32 %26 to i64
  %28 = getelementptr inbounds [0 x ptr], ptr %25, i64 0, i64 %27
  %29 = load ptr, ptr %28, align 8
  store ptr %29, ptr %10, align 8
  call void @llvm.lifetime.start.p0(i64 8, ptr %11) #9
  %30 = load ptr, ptr %10, align 8
  %31 = getelementptr inbounds nuw %struct.PartitionPruningData, ptr %30, i32 0, i32 1
  %32 = getelementptr inbounds [0 x %struct.PartitionedRelPruningData], ptr %31, i64 0, i64 0
  store ptr %32, ptr %11, align 8
  %33 = load ptr, ptr %10, align 8
  %34 = load ptr, ptr %11, align 8
  %35 = load i8, ptr %5, align 1, !range !4, !noundef !5
  %36 = trunc i8 %35 to i1
  %37 = load ptr, ptr %6, align 8
  call void @find_matching_subplans_recurse(ptr noundef %33, ptr noundef %34, i1 noundef zeroext %36, ptr noundef %7, ptr noundef %37)
  %38 = load i8, ptr %5, align 1, !range !4, !noundef !5
  %39 = trunc i8 %38 to i1
  br i1 %39, label %52, label %40

40:                                               ; preds = %23
  %41 = load ptr, ptr %11, align 8
  %42 = getelementptr inbounds nuw %struct.PartitionedRelPruningData, ptr %41, i32 0, i32 7
  %43 = load ptr, ptr %42, align 8
  %44 = icmp ne ptr %43, null
  br i1 %44, label %45, label %52

45:                                               ; preds = %40
  %46 = load ptr, ptr %11, align 8
  %47 = getelementptr inbounds nuw %struct.PartitionedRelPruningData, ptr %46, i32 0, i32 9
  %48 = getelementptr inbounds nuw %struct.PartitionPruneContext, ptr %47, i32 0, i32 9
  %49 = load ptr, ptr %48, align 8
  %50 = getelementptr inbounds nuw %struct.ExprContext, ptr %49, i32 0, i32 5
  %51 = load ptr, ptr %50, align 8
  call void @MemoryContextReset(ptr noundef %51)
  br label %52

52:                                               ; preds = %45, %40, %23
  call void @llvm.lifetime.end.p0(i64 8, ptr %11) #9
  call void @llvm.lifetime.end.p0(i64 8, ptr %10) #9
  br label %53

53:                                               ; preds = %52
  %54 = load i32, ptr %9, align 4
  %55 = add i32 %54, 1
  store i32 %55, ptr %9, align 4
  br label %17, !llvm.loop !25

56:                                               ; preds = %17
  %57 = load ptr, ptr %7, align 8
  %58 = load ptr, ptr %4, align 8
  %59 = getelementptr inbounds nuw %struct.PartitionPruneState, ptr %58, i32 0, i32 2
  %60 = load ptr, ptr %59, align 8
  %61 = call ptr @bms_add_members(ptr noundef %57, ptr noundef %60)
  store ptr %61, ptr %7, align 8
  %62 = load ptr, ptr %8, align 8
  %63 = call ptr @MemoryContextSwitchTo(ptr noundef %62)
  %64 = load ptr, ptr %7, align 8
  %65 = call ptr @bms_copy(ptr noundef %64)
  store ptr %65, ptr %7, align 8
  %66 = load ptr, ptr %6, align 8
  %67 = icmp ne ptr %66, null
  br i1 %67, label %68, label %73

68:                                               ; preds = %56
  %69 = load ptr, ptr %6, align 8
  %70 = load ptr, ptr %69, align 8
  %71 = call ptr @bms_copy(ptr noundef %70)
  %72 = load ptr, ptr %6, align 8
  store ptr %71, ptr %72, align 8
  br label %73

73:                                               ; preds = %68, %56
  %74 = load ptr, ptr %4, align 8
  %75 = getelementptr inbounds nuw %struct.PartitionPruneState, ptr %74, i32 0, i32 3
  %76 = load ptr, ptr %75, align 8
  call void @MemoryContextReset(ptr noundef %76)
  %77 = load ptr, ptr %7, align 8
  call void @llvm.lifetime.end.p0(i64 4, ptr %9) #9
  call void @llvm.lifetime.end.p0(i64 8, ptr %8) #9
  call void @llvm.lifetime.end.p0(i64 8, ptr %7) #9
  ret ptr %77
}