; Function Attrs: nounwind uwtable
define dso_local ptr @ExecFindMatchingSubPlans(ptr noundef readonly captures(none) %0, i1 noundef zeroext %1, ptr noundef captures(address_is_null) %2) local_unnamed_addr #0 {
  %4 = alloca ptr, align 8
  call void @llvm.lifetime.start.p0(i64 8, ptr nonnull %4) #9
  store ptr null, ptr %4, align 8
  %5 = getelementptr inbounds nuw i8, ptr %0, i64 24
  %6 = load ptr, ptr %5, align 8
  %7 = load ptr, ptr @CurrentMemoryContext, align 8
  store ptr %6, ptr @CurrentMemoryContext, align 8
  %8 = getelementptr inbounds nuw i8, ptr %0, i64 36
  %9 = load i32, ptr %8, align 4
  %10 = icmp sgt i32 %9, 0
  br i1 %10, label %.lr.ph, label %._crit_edge

.lr.ph:                                           ; preds = %3
  %11 = getelementptr inbounds nuw i8, ptr %0, i64 40
  br i1 %1, label %.lr.ph.split.us, label %.lr.ph.split

.lr.ph.split.us:                                  ; preds = %.lr.ph, %.lr.ph.split.us
  %indvars.iv24 = phi i64 [ %indvars.iv.next25, %.lr.ph.split.us ], [ 0, %.lr.ph ]
  %12 = getelementptr inbounds nuw [0 x ptr], ptr %11, i64 0, i64 %indvars.iv24
  %13 = load ptr, ptr %12, align 8
  %14 = getelementptr inbounds nuw i8, ptr %13, i64 8
  call fastcc void @find_matching_subplans_recurse(ptr noundef %13, ptr noundef nonnull %14, i1 noundef zeroext true, ptr noundef %4, ptr noundef %2)
  %indvars.iv.next25 = add nuw nsw i64 %indvars.iv24, 1
  %15 = load i32, ptr %8, align 4
  %16 = sext i32 %15 to i64
  %17 = icmp slt i64 %indvars.iv.next25, %16
  br i1 %17, label %.lr.ph.split.us, label %._crit_edge, !llvm.loop !20

.lr.ph.split:                                     ; preds = %.lr.ph, %28
  %indvars.iv = phi i64 [ %indvars.iv.next, %28 ], [ 0, %.lr.ph ]
  %18 = getelementptr inbounds nuw [0 x ptr], ptr %11, i64 0, i64 %indvars.iv
  %19 = load ptr, ptr %18, align 8
  %20 = getelementptr inbounds nuw i8, ptr %19, i64 8
  call fastcc void @find_matching_subplans_recurse(ptr noundef %19, ptr noundef nonnull %20, i1 noundef zeroext false, ptr noundef %4, ptr noundef %2)
  %21 = getelementptr inbounds nuw i8, ptr %19, i64 64
  %22 = load ptr, ptr %21, align 8
  %.not20 = icmp eq ptr %22, null
  br i1 %.not20, label %28, label %23

23:                                               ; preds = %.lr.ph.split
  %24 = getelementptr inbounds nuw i8, ptr %19, i64 216
  %25 = load ptr, ptr %24, align 8
  %26 = getelementptr inbounds nuw i8, ptr %25, i64 40
  %27 = load ptr, ptr %26, align 8
  tail call void @MemoryContextReset(ptr noundef %27) #9
  br label %28

28:                                               ; preds = %23, %.lr.ph.split
  %indvars.iv.next = add nuw nsw i64 %indvars.iv, 1
  %29 = load i32, ptr %8, align 4
  %30 = sext i32 %29 to i64
  %31 = icmp slt i64 %indvars.iv.next, %30
  br i1 %31, label %.lr.ph.split, label %._crit_edge, !llvm.loop !20

._crit_edge:                                      ; preds = %28, %.lr.ph.split.us, %3
  %32 = load ptr, ptr %4, align 8
  %33 = getelementptr inbounds nuw i8, ptr %0, i64 16
  %34 = load ptr, ptr %33, align 8
  %35 = tail call ptr @bms_add_members(ptr noundef %32, ptr noundef %34) #9
  store ptr %7, ptr @CurrentMemoryContext, align 8
  %36 = tail call ptr @bms_copy(ptr noundef %35) #9
  %.not = icmp eq ptr %2, null
  br i1 %.not, label %40, label %37

37:                                               ; preds = %._crit_edge
  %38 = load ptr, ptr %2, align 8
  %39 = tail call ptr @bms_copy(ptr noundef %38) #9
  store ptr %39, ptr %2, align 8
  br label %40

40:                                               ; preds = %37, %._crit_edge
  %41 = load ptr, ptr %5, align 8
  tail call void @MemoryContextReset(ptr noundef %41) #9
  call void @llvm.lifetime.end.p0(i64 8, ptr nonnull %4) #9
  ret ptr %36
}